target datalayout = "e-m:e-p270:32:32-p271:32:32-p272:64:64-i64:64-i128:128-f80:128-n8:16:32:64-S128"
target triple = "x86_64-pc-linux-gnu"

%struct.expert_field = type { i32, i32 }

@hf_mbim_provider_state = internal global i32 0, align 4
@hf_mbim_provider_provider_id_offset = internal global i32 0, align 4
@hf_mbim_provider_provider_id_size = internal global i32 0, align 4
@hf_mbim_provider_provider_name_offset = internal global i32 0, align 4
@hf_mbim_provider_provider_name_size = internal global i32 0, align 4
@hf_mbim_provider_cellular_class = internal global i32 0, align 4
@hf_mbim_provider_rssi = internal global i32 0, align 4
@hf_mbim_provider_error_rate = internal global i32 0, align 4
@hf_mbim_provider_provider_id = internal global i32 0, align 4
@hf_mbim_provider_provider_name = internal global i32 0, align 4
@ett_mbim_bitmap = internal global i32 0, align 4
@ei_mbim_oversized_string = internal global %struct.expert_field zeroinitializer, align 4

; Function Attrs: nounwind uwtable
define internal void @mbim_dissect_provider(ptr noundef %0, ptr noundef %1, ptr noundef %2, i32 noundef %3) #0 {
  %5 = alloca ptr, align 8
  %6 = alloca ptr, align 8
  %7 = alloca ptr, align 8
  %8 = alloca i32, align 4
  %9 = alloca i32, align 4
  %10 = alloca i32, align 4
  %11 = alloca i32, align 4
  %12 = alloca i32, align 4
  %13 = alloca i32, align 4
  %14 = alloca ptr, align 8
  store ptr %0, ptr %5, align 8
  store ptr %1, ptr %6, align 8
  store ptr %2, ptr %7, align 8
  store i32 %3, ptr %8, align 4
  %15 = load i32, ptr %8, align 4
  store i32 %15, ptr %9, align 4
  %16 = load ptr, ptr %7, align 8
  %17 = load i32, ptr @hf_mbim_provider_provider_id_offset, align 4
  %18 = load ptr, ptr %5, align 8
  %19 = load i32, ptr %8, align 4
  %20 = call ptr @proto_tree_add_item_ret_uint(ptr noundef %16, i32 noundef %17, ptr noundef %18, i32 noundef %19, i32 noundef 4, i32 noundef -2147483648, ptr noundef %10)
  %21 = load i32, ptr %8, align 4
  %22 = add i32 %21, 4
  store i32 %22, ptr %8, align 4
  %23 = load ptr, ptr %7, align 8
  %24 = load i32, ptr @hf_mbim_provider_provider_id_size, align 4
  %25 = load ptr, ptr %5, align 8
  %26 = load i32, ptr %8, align 4
  %27 = call ptr @proto_tree_add_item_ret_uint(ptr noundef %23, i32 noundef %24, ptr noundef %25, i32 noundef %26, i32 noundef 4, i32 noundef -2147483648, ptr noundef %11)
  %28 = load i32, ptr %8, align 4
  %29 = add i32 %28, 4
  store i32 %29, ptr %8, align 4
  %30 = load ptr, ptr %7, align 8
  %31 = load ptr, ptr %5, align 8
  %32 = load i32, ptr %8, align 4
  %33 = load i32, ptr @hf_mbim_provider_state, align 4
  %34 = load i32, ptr @ett_mbim_bitmap, align 4
  %35 = call ptr @proto_tree_add_bitmask(ptr noundef %30, ptr noundef %31, i32 noundef %32, i32 noundef %33, i32 noundef %34, ptr noundef @mbim_provider_state_fields, i32 noundef -2147483648)
  %36 = load i32, ptr %8, align 4
  %37 = add i32 %36, 4
  store i32 %37, ptr %8, align 4
  %38 = load ptr, ptr %7, align 8
  %39 = load i32, ptr @hf_mbim_provider_provider_name_offset, align 4
  %40 = load ptr, ptr %5, align 8
  %41 = load i32, ptr %8, align 4
  %42 = call ptr @proto_tree_add_item_ret_uint(ptr noundef %38, i32 noundef %39, ptr noundef %40, i32 noundef %41, i32 noundef 4, i32 noundef -2147483648, ptr noundef %12)
  %43 = load i32, ptr %8, align 4
  %44 = add i32 %43, 4
  store i32 %44, ptr %8, align 4
  %45 = load ptr, ptr %7, align 8
  %46 = load i32, ptr @hf_mbim_provider_provider_name_size, align 4
  %47 = load ptr, ptr %5, align 8
  %48 = load i32, ptr %8, align 4
  %49 = call ptr @proto_tree_add_item_ret_uint(ptr noundef %45, i32 noundef %46, ptr noundef %47, i32 noundef %48, i32 noundef 4, i32 noundef -2147483648, ptr noundef %13)
  %50 = load i32, ptr %8, align 4
  %51 = add i32 %50, 4
  store i32 %51, ptr %8, align 4
  %52 = load ptr, ptr %7, align 8
  %53 = load i32, ptr @hf_mbim_provider_cellular_class, align 4
  %54 = load ptr, ptr %5, align 8
  %55 = load i32, ptr %8, align 4
  %56 = call ptr @proto_tree_add_item(ptr noundef %52, i32 noundef %53, ptr noundef %54, i32 noundef %55, i32 noundef 4, i32 noundef -2147483648)
  %57 = load i32, ptr %8, align 4
  %58 = add i32 %57, 4
  store i32 %58, ptr %8, align 4
  %59 = load ptr, ptr %7, align 8
  %60 = load i32, ptr @hf_mbim_provider_rssi, align 4
  %61 = load ptr, ptr %5, align 8
  %62 = load i32, ptr %8, align 4
  %63 = call ptr @proto_tree_add_item(ptr noundef %59, i32 noundef %60, ptr noundef %61, i32 noundef %62, i32 noundef 4, i32 noundef -2147483648)
  %64 = load i32, ptr %8, align 4
  %65 = add i32 %64, 4
  store i32 %65, ptr %8, align 4
  %66 = load ptr, ptr %7, align 8
  %67 = load i32, ptr @hf_mbim_provider_error_rate, align 4
  %68 = load ptr, ptr %5, align 8
  %69 = load i32, ptr %8, align 4
  %70 = call ptr @proto_tree_add_item(ptr noundef %66, i32 noundef %67, ptr noundef %68, i32 noundef %69, i32 noundef 4, i32 noundef -2147483648)
  %71 = load i32, ptr %10, align 4
  %72 = icmp ne i32 %71, 0
  br i1 %72, label %73, label %92

73:                                               ; preds = %4
  %74 = load i32, ptr %11, align 4
  %75 = icmp ne i32 %74, 0
  br i1 %75, label %76, label %92

76:                                               ; preds = %73
  %77 = load ptr, ptr %7, align 8
  %78 = load i32, ptr @hf_mbim_provider_provider_id, align 4
  %79 = load ptr, ptr %5, align 8
  %80 = load i32, ptr %9, align 4
  %81 = load i32, ptr %10, align 4
  %82 = add i32 %80, %81
  %83 = load i32, ptr %11, align 4
  %84 = call ptr @proto_tree_add_item(ptr noundef %77, i32 noundef %78, ptr noundef %79, i32 noundef %82, i32 noundef %83, i32 noundef -2147483644)
  store ptr %84, ptr %14, align 8
  %85 = load i32, ptr %11, align 4
  %86 = icmp ugt i32 %85, 12
  br i1 %86, label %87, label %91

87:                                               ; preds = %76
  %88 = load ptr, ptr %6, align 8
  %89 = load ptr, ptr %14, align 8
  %90 = call ptr @expert_add_info(ptr noundef %88, ptr noundef %89, ptr noundef @ei_mbim_oversized_string)
  br label %91

91:                                               ; preds = %87, %76
  br label %92

92:                                               ; preds = %91, %73, %4
  %93 = load i32, ptr %12, align 4
  %94 = icmp ne i32 %93, 0
  br i1 %94, label %95, label %114

95:                                               ; preds = %92
  %96 = load i32, ptr %13, align 4
  %97 = icmp ne i32 %96, 0
  br i1 %97, label %98, label %114

98:                                               ; preds = %95
  %99 = load ptr, ptr %7, align 8
  %100 = load i32, ptr @hf_mbim_provider_provider_name, align 4
  %101 = load ptr, ptr %5, align 8
  %102 = load i32, ptr %9, align 4
  %103 = load i32, ptr %12, align 4
  %104 = add i32 %102, %103
  %105 = load i32, ptr %13, align 4
  %106 = call ptr @proto_tree_add_item(ptr noundef %99, i32 noundef %100, ptr noundef %101, i32 noundef %104, i32 noundef %105, i32 noundef -2147483644)
  store ptr %106, ptr %14, align 8
  %107 = load i32, ptr %13, align 4
  %108 = icmp ugt i32 %107, 40
  br i1 %108, label %109, label %113

109:                                              ; preds = %98
  %110 = load ptr, ptr %6, align 8
  %111 = load ptr, ptr %14, align 8
  %112 = call ptr @expert_add_info(ptr noundef %110, ptr noundef %111, ptr noundef @ei_mbim_oversized_string)
  br label %113

113:                                              ; preds = %109, %98
  br label %114

114:                                              ; preds = %113, %95, %92
  ret void
}