; Function Attrs: nounwind uwtable
define internal fastcc void @mbim_dissect_provider(ptr noundef %0, ptr noundef %1, ptr noundef %2, i32 noundef %3) unnamed_addr #0 {
  %5 = alloca i32, align 4
  %6 = alloca i32, align 4
  %7 = alloca i32, align 4
  %8 = alloca i32, align 4
  %9 = load i32, ptr @hf_mbim_provider_provider_id_offset, align 4
  %10 = call ptr @proto_tree_add_item_ret_uint(ptr noundef %2, i32 noundef %9, ptr noundef %0, i32 noundef %3, i32 noundef 4, i32 noundef -2147483648, ptr noundef nonnull %5) #10
  %11 = add i32 %3, 4
  %12 = load i32, ptr @hf_mbim_provider_provider_id_size, align 4
  %13 = call ptr @proto_tree_add_item_ret_uint(ptr noundef %2, i32 noundef %12, ptr noundef %0, i32 noundef %11, i32 noundef 4, i32 noundef -2147483648, ptr noundef nonnull %6) #10
  %14 = add i32 %3, 8
  %15 = load i32, ptr @hf_mbim_provider_state, align 4
  %16 = load i32, ptr @ett_mbim_bitmap, align 4
  %17 = call ptr @proto_tree_add_bitmask(ptr noundef %2, ptr noundef %0, i32 noundef %14, i32 noundef %15, i32 noundef %16, ptr noundef nonnull @mbim_provider_state_fields, i32 noundef -2147483648) #10
  %18 = add i32 %3, 12
  %19 = load i32, ptr @hf_mbim_provider_provider_name_offset, align 4
  %20 = call ptr @proto_tree_add_item_ret_uint(ptr noundef %2, i32 noundef %19, ptr noundef %0, i32 noundef %18, i32 noundef 4, i32 noundef -2147483648, ptr noundef nonnull %7) #10
  %21 = add i32 %3, 16
  %22 = load i32, ptr @hf_mbim_provider_provider_name_size, align 4
  %23 = call ptr @proto_tree_add_item_ret_uint(ptr noundef %2, i32 noundef %22, ptr noundef %0, i32 noundef %21, i32 noundef 4, i32 noundef -2147483648, ptr noundef nonnull %8) #10
  %24 = add i32 %3, 20
  %25 = load i32, ptr @hf_mbim_provider_cellular_class, align 4
  %26 = call ptr @proto_tree_add_item(ptr noundef %2, i32 noundef %25, ptr noundef %0, i32 noundef %24, i32 noundef 4, i32 noundef -2147483648) #10
  %27 = add i32 %3, 24
  %28 = load i32, ptr @hf_mbim_provider_rssi, align 4
  %29 = call ptr @proto_tree_add_item(ptr noundef %2, i32 noundef %28, ptr noundef %0, i32 noundef %27, i32 noundef 4, i32 noundef -2147483648) #10
  %30 = add i32 %3, 28
  %31 = load i32, ptr @hf_mbim_provider_error_rate, align 4
  %32 = call ptr @proto_tree_add_item(ptr noundef %2, i32 noundef %31, ptr noundef %0, i32 noundef %30, i32 noundef 4, i32 noundef -2147483648) #10
  %33 = load i32, ptr %5, align 4
  %34 = icmp ne i32 %33, 0
  %35 = load i32, ptr %6, align 4
  %36 = icmp ne i32 %35, 0
  %or.cond = select i1 %34, i1 %36, i1 false
  br i1 %or.cond, label %37, label %45

37:                                               ; preds = %4
  %38 = load i32, ptr @hf_mbim_provider_provider_id, align 4
  %39 = add i32 %33, %3
  %40 = call ptr @proto_tree_add_item(ptr noundef %2, i32 noundef %38, ptr noundef %0, i32 noundef %39, i32 noundef %35, i32 noundef -2147483644) #10
  %41 = load i32, ptr %6, align 4
  %42 = icmp ugt i32 %41, 12
  br i1 %42, label %43, label %45

43:                                               ; preds = %37
  %44 = call ptr @expert_add_info(ptr noundef %1, ptr noundef %40, ptr noundef nonnull @ei_mbim_oversized_string) #10
  br label %45

45:                                               ; preds = %37, %43, %4
  %46 = load i32, ptr %7, align 4
  %47 = icmp ne i32 %46, 0
  %48 = load i32, ptr %8, align 4
  %49 = icmp ne i32 %48, 0
  %or.cond3 = select i1 %47, i1 %49, i1 false
  br i1 %or.cond3, label %50, label %58

50:                                               ; preds = %45
  %51 = load i32, ptr @hf_mbim_provider_provider_name, align 4
  %52 = add i32 %46, %3
  %53 = call ptr @proto_tree_add_item(ptr noundef %2, i32 noundef %51, ptr noundef %0, i32 noundef %52, i32 noundef %48, i32 noundef -2147483644) #10
  %54 = load i32, ptr %8, align 4
  %55 = icmp ugt i32 %54, 40
  br i1 %55, label %56, label %58

56:                                               ; preds = %50
  %57 = call ptr @expert_add_info(ptr noundef %1, ptr noundef %53, ptr noundef nonnull @ei_mbim_oversized_string) #10
  br label %58

58:                                               ; preds = %50, %56, %45
  ret void
}